#include <math.h>
#include <stdio.h>
#include <stdlib.h>
#include <string.h>

void main()
{
	int w,i,a[12]={0,31,28,31,30,31,30,31,31,30,31,30};
	scanf("%d",&w);
	w=w+12;
	for(i=0;i<=11;i++)
	{
		w=w+a[i];
		if(w%7==5)
			printf("%d\n",i+1);
	}
}